; ModuleID = 'bench/linux/original/i915_module.ll'
source_filename = "bench/linux/original/i915_module.ll"
target datalayout = "e-m:e-p270:32:32-p271:32:32-p272:64:64-i64:64-i128:128-f80:128-n8:16:32:64-S128"
target triple = "x86_64-unknown-linux-gnu"

module asm ".section\09\22.initcall6.init\22, \22a\22\09\09"
module asm "__initcall__kmod_i915__846_118_i915_init6:\09\09\09"
module asm ".long\09i915_init - .\09"
module asm ".previous\09\09\09\09\09"

%struct.anon = type { ptr, ptr }
%struct.i915_params = type { i32, i32, i32, ptr, ptr, ptr, ptr, i8, i32, i32, i32, ptr, i32, i32, i32, i8, i8, i8 }

@init_progress = internal unnamed_addr global i32 0, align 4
@init_funcs = internal unnamed_addr constant [13 x %struct.anon] [%struct.anon { ptr @i915_check_nomodeset, ptr null }, %struct.anon { ptr @i915_active_module_init, ptr @i915_active_module_exit }, %struct.anon { ptr @i915_context_module_init, ptr @i915_context_module_exit }, %struct.anon { ptr @i915_gem_context_module_init, ptr @i915_gem_context_module_exit }, %struct.anon { ptr @i915_objects_module_init, ptr @i915_objects_module_exit }, %struct.anon { ptr @i915_request_module_init, ptr @i915_request_module_exit }, %struct.anon { ptr @i915_scheduler_module_init, ptr @i915_scheduler_module_exit }, %struct.anon { ptr @i915_vma_module_init, ptr @i915_vma_module_exit }, %struct.anon { ptr @i915_vma_resource_module_init, ptr @i915_vma_resource_module_exit }, %struct.anon { ptr @i915_mock_selftests, ptr null }, %struct.anon { ptr @i915_pmu_init, ptr @i915_pmu_exit }, %struct.anon { ptr @i915_pci_register_driver, ptr @i915_pci_unregister_driver }, %struct.anon { ptr @i915_perf_sysctl_register, ptr @i915_perf_sysctl_unregister }], align 16
@__UNIQUE_ID___addressable_i915_init847 = internal global ptr @i915_init, section ".discard.addressable", align 8
@__exitcall_i915_exit = internal global ptr @i915_exit, section ".exitcall.exit", align 8
@__UNIQUE_ID_author848 = internal constant [36 x i8] c"i915.author=Tungsten Graphics, Inc.\00", section ".modinfo", align 1
@__UNIQUE_ID_author849 = internal constant [30 x i8] c"i915.author=Intel Corporation\00", section ".modinfo", align 1
@__UNIQUE_ID_description850 = internal constant [32 x i8] c"i915.description=Intel Graphics\00", section ".modinfo", align 1
@__UNIQUE_ID_file851 = internal constant [36 x i8] c"i915.file=drivers/gpu/drm/i915/i915\00", section ".modinfo", align 1
@__UNIQUE_ID_license852 = internal constant [39 x i8] c"i915.license=GPL and additional rights\00", section ".modinfo", align 1
@i915_modparams = external dso_local local_unnamed_addr global %struct.i915_params, section ".data..read_mostly", align 8
@.str = private unnamed_addr constant [15 x i8] c"KMS disabled.\0A\00", align 1
@.str.1 = private unnamed_addr constant [35 x i8] c"drivers/gpu/drm/i915/i915_module.c\00", align 1
@llvm.compiler.used = appending global [8 x ptr] [ptr @__UNIQUE_ID___addressable_i915_init847, ptr @__UNIQUE_ID_author848, ptr @__UNIQUE_ID_author849, ptr @__UNIQUE_ID_description850, ptr @__UNIQUE_ID_file851, ptr @__UNIQUE_ID_license852, ptr @__exitcall_i915_exit, ptr @i915_exit], section "llvm.metadata"

; Function Attrs: cold fn_ret_thunk_extern nounwind null_pointer_is_valid optsize
define internal void @i915_exit() #0 section ".exit.text" align 16 {
  %1 = load i32, ptr @init_progress, align 4
  %2 = add i32 %1, -1
  %3 = icmp sgt i32 %2, -1
  br i1 %3, label %4, label %.loopexit

4:                                                ; preds = %0
  %5 = zext nneg i32 %2 to i64
  br label %6

6:                                                ; preds = %12, %4
  %7 = phi i64 [ %5, %4 ], [ %13, %12 ]
  %8 = phi i32 [ %1, %4 ], [ %15, %12 ]
  switch i32 %8, label %9 [
    i32 10, label %12
    i32 1, label %12
  ]

9:                                                ; preds = %6
  %10 = getelementptr [13 x %struct.anon], ptr @init_funcs, i64 0, i64 %7, i32 1
  %11 = load ptr, ptr %10, align 8
  tail call void %11() #4
  br label %12

12:                                               ; preds = %9, %6, %6
  %13 = add nsw i64 %7, -1
  %14 = icmp sgt i64 %7, 0
  %15 = trunc i64 %7 to i32
  br i1 %14, label %6, label %.loopexit, !llvm.loop !5

.loopexit:                                        ; preds = %12, %0
  ret void
}

; Function Attrs: cold fn_ret_thunk_extern nounwind null_pointer_is_valid optsize
define internal i32 @i915_init() #0 section ".init.text" align 16 {
  br label %1

1:                                                ; preds = %26, %0
  %2 = phi i64 [ 0, %0 ], [ %27, %26 ]
  %3 = getelementptr [13 x %struct.anon], ptr @init_funcs, i64 0, i64 %2
  %4 = load ptr, ptr %3, align 16
  %5 = tail call i32 %4() #4
  %6 = icmp slt i32 %5, 0
  br i1 %6, label %7, label %18

7:                                                ; preds = %1
  %8 = and i64 %2, 4294967295
  %9 = icmp eq i64 %8, 0
  br i1 %9, label %.loopexit, label %.preheader

.preheader:                                       ; preds = %7, %16
  %10 = phi i64 [ %11, %16 ], [ %2, %7 ]
  %11 = add nsw i64 %10, -1
  %12 = and i64 %11, 1152921504606846975
  switch i64 %12, label %13 [
    i64 9, label %16
    i64 0, label %16
  ]

13:                                               ; preds = %.preheader
  %14 = getelementptr [13 x %struct.anon], ptr @init_funcs, i64 0, i64 %11, i32 1
  %15 = load ptr, ptr %14, align 8
  tail call void %15() #4
  br label %16

16:                                               ; preds = %13, %.preheader, %.preheader
  %17 = icmp eq i64 %11, 0
  br i1 %17, label %.loopexit, label %.preheader, !llvm.loop !8

18:                                               ; preds = %1
  %19 = icmp eq i32 %5, 0
  br i1 %19, label %26, label %20

20:                                               ; preds = %18
  %21 = trunc i64 %2 to i32
  %22 = getelementptr inbounds i8, ptr %3, i64 8
  %23 = load ptr, ptr %22, align 8
  %24 = icmp eq ptr %23, null
  br i1 %24, label %.loopexit3, label %25, !prof !9

25:                                               ; preds = %20
  tail call void asm sideeffect "844: nop\0A\09.pushsection .discard.instr_begin\0A\09.long 844b - .\0A\09.popsection\0A\09", "i,~{dirflag},~{fpsr},~{flags}"(i32 844) #4, !srcloc !10
  tail call void asm sideeffect "1:\09.byte 0x0f, 0x0b\0A.pushsection __bug_table,\22aw\22\0A2:\09.long 1b - .\09# bug_entry::bug_addr\0A\09.long ${0:c} - .\09# bug_entry::file\0A\09.word ${1:c}\09# bug_entry::line\0A\09.word ${2:c}\09# bug_entry::flags\0A\09.org 2b+${3:c}\0A.popsection\0A998:\0A\09.pushsection .discard.reachable\0A\09.long 998b\0A\09.popsection\0A\09", "i,i,i,i,~{dirflag},~{fpsr},~{flags}"(ptr nonnull @.str.1, i32 97, i32 2305, i64 12) #4, !srcloc !11
  tail call void asm sideeffect "845: nop\0A\09.pushsection .discard.instr_end\0A\09.long 845b - .\0A\09.popsection\0A\09", "i,~{dirflag},~{fpsr},~{flags}"(i32 845) #4, !srcloc !12
  br label %.loopexit3

26:                                               ; preds = %18
  %27 = add nuw nsw i64 %2, 1
  %28 = icmp eq i64 %27, 13
  br i1 %28, label %.loopexit3, label %1, !llvm.loop !13

.loopexit3:                                       ; preds = %26, %25, %20
  %29 = phi i32 [ %21, %20 ], [ %21, %25 ], [ 13, %26 ]
  store i32 %29, ptr @init_progress, align 4
  br label %.loopexit

.loopexit:                                        ; preds = %16, %.loopexit3, %7
  %30 = phi i32 [ 0, %.loopexit3 ], [ %5, %7 ], [ %5, %16 ]
  ret i32 %30
}

; Function Attrs: fn_ret_thunk_extern nounwind null_pointer_is_valid
define internal noundef i32 @i915_check_nomodeset() #1 align 16 {
  %1 = load i32, ptr @i915_modparams, align 8
  %2 = icmp ne i32 %1, 0
  %3 = tail call zeroext i1 @video_firmware_drivers_only() #4
  %4 = load i32, ptr @i915_modparams, align 8
  %5 = icmp ne i32 %4, -1
  %6 = xor i1 %3, true
  %7 = select i1 %6, i1 true, i1 %5
  %8 = select i1 %7, i1 %2, i1 false
  br i1 %8, label %10, label %9

9:                                                ; preds = %0
  tail call void (ptr, i32, ptr, ...) @___drm_dbg(ptr noundef null, i32 noundef 1, ptr noundef nonnull @.str) #4
  br label %10

10:                                               ; preds = %9, %0
  %11 = phi i32 [ 1, %9 ], [ 0, %0 ]
  ret i32 %11
}

; Function Attrs: null_pointer_is_valid
declare dso_local i32 @i915_active_module_init() #2

; Function Attrs: null_pointer_is_valid
declare dso_local void @i915_active_module_exit() #2

; Function Attrs: null_pointer_is_valid
declare dso_local i32 @i915_context_module_init() #2

; Function Attrs: null_pointer_is_valid
declare dso_local void @i915_context_module_exit() #2

; Function Attrs: null_pointer_is_valid
declare dso_local i32 @i915_gem_context_module_init() #2

; Function Attrs: null_pointer_is_valid
declare dso_local void @i915_gem_context_module_exit() #2

; Function Attrs: null_pointer_is_valid
declare dso_local i32 @i915_objects_module_init() #2

; Function Attrs: null_pointer_is_valid
declare dso_local void @i915_objects_module_exit() #2

; Function Attrs: null_pointer_is_valid
declare dso_local i32 @i915_request_module_init() #2

; Function Attrs: null_pointer_is_valid
declare dso_local void @i915_request_module_exit() #2

; Function Attrs: null_pointer_is_valid
declare dso_local i32 @i915_scheduler_module_init() #2

; Function Attrs: null_pointer_is_valid
declare dso_local void @i915_scheduler_module_exit() #2

; Function Attrs: null_pointer_is_valid
declare dso_local i32 @i915_vma_module_init() #2

; Function Attrs: null_pointer_is_valid
declare dso_local void @i915_vma_module_exit() #2

; Function Attrs: null_pointer_is_valid
declare dso_local i32 @i915_vma_resource_module_init() #2

; Function Attrs: null_pointer_is_valid
declare dso_local void @i915_vma_resource_module_exit() #2

; Function Attrs: fn_ret_thunk_extern inlinehint mustprogress nofree norecurse nosync nounwind null_pointer_is_valid willreturn memory(none)
define internal noundef i32 @i915_mock_selftests() #3 align 16 {
  ret i32 0
}

; Function Attrs: null_pointer_is_valid
declare dso_local i32 @i915_pmu_init() #2

; Function Attrs: null_pointer_is_valid
declare dso_local void @i915_pmu_exit() #2

; Function Attrs: null_pointer_is_valid
declare dso_local i32 @i915_pci_register_driver() #2

; Function Attrs: null_pointer_is_valid
declare dso_local void @i915_pci_unregister_driver() #2

; Function Attrs: null_pointer_is_valid
declare dso_local i32 @i915_perf_sysctl_register() #2

; Function Attrs: null_pointer_is_valid
declare dso_local void @i915_perf_sysctl_unregister() #2

; Function Attrs: null_pointer_is_valid
declare dso_local void @___drm_dbg(ptr noundef, i32 noundef, ptr noundef, ...) local_unnamed_addr #2

; Function Attrs: null_pointer_is_valid
declare dso_local zeroext i1 @video_firmware_drivers_only() local_unnamed_addr #2


!llvm.module.flags = !{!0, !1, !2, !3, !4}

!0 = !{i32 1, !"wchar_size", i32 2}
!1 = !{i32 8, !"cf-protection-branch", i32 1}
!2 = !{i32 4, !"function_return_thunk_extern", i32 1}
!3 = !{i32 4, !"indirect_branch_cs_prefix", i32 1}
!4 = !{i32 4, !"SkipRaxSetup", i32 1}
!5 = distinct !{!5, !6, !7}
!6 = !{!"llvm.loop.mustprogress"}
!7 = !{!"llvm.loop.unroll.disable"}
!8 = distinct !{!8, !6, !7}
!9 = !{!"branch_weights", i32 2000, i32 1}
!10 = !{i64 2159383082, i64 2159382891, i64 2159382943, i64 2159382989, i64 2159383017}
!11 = !{i64 2159383156, i64 2159383185, i64 2159383231, i64 2159383289, i64 2159383343, i64 2159383397, i64 2159383452, i64 2159383483, i64 2159383791, i64 2159383797, i64 2159383844, i64 2159383867, i64 2159383893}
!12 = !{i64 2159384359, i64 2159384170, i64 2159384220, i64 2159384266, i64 2159384294}
!13 = distinct !{!13, !6, !7}
